; ModuleID = 'source-C-CXX/18/1937.c'
source_filename = "source-C-CXX/18/1937.c"
target datalayout = "e-m:e-p270:32:32-p271:32:32-p272:64:64-i64:64-f80:128-n8:16:32:64-S128"
target triple = "x86_64-pc-linux-gnu"

@.str = private unnamed_addr constant [4 x i8] c"%s \00", align 1
@.str.1 = private unnamed_addr constant [3 x i8] c"%s\00", align 1

; Function Attrs: nounwind sspstrong uwtable
define dso_local i32 @main() local_unnamed_addr #0 {
  %1 = alloca [100 x i8], align 16
  %2 = alloca [100 x i8], align 16
  %3 = alloca [100 x i8], align 16
  %4 = alloca [100 x [100 x i8]], align 16
  %5 = getelementptr inbounds [100 x i8], [100 x i8]* %1, i64 0, i64 0
  call void @llvm.lifetime.start.p0i8(i64 100, i8* nonnull %5) #6
  %6 = getelementptr inbounds [100 x i8], [100 x i8]* %2, i64 0, i64 0
  call void @llvm.lifetime.start.p0i8(i64 100, i8* nonnull %6) #6
  %7 = getelementptr inbounds [100 x i8], [100 x i8]* %3, i64 0, i64 0
  call void @llvm.lifetime.start.p0i8(i64 100, i8* nonnull %7) #6
  %8 = getelementptr inbounds [100 x [100 x i8]], [100 x [100 x i8]]* %4, i64 0, i64 0, i64 0
  call void @llvm.lifetime.start.p0i8(i64 10000, i8* nonnull %8) #6
  %9 = call i32 (i8*, ...) bitcast (i32 (...)* @gets to i32 (i8*, ...)*)(i8* nonnull %5) #6
  %10 = call i32 (i8*, ...) bitcast (i32 (...)* @gets to i32 (i8*, ...)*)(i8* nonnull %6) #6
  %11 = call i32 (i8*, ...) bitcast (i32 (...)* @gets to i32 (i8*, ...)*)(i8* nonnull %7) #6
  %12 = call i64 @strlen(i8* noundef nonnull %5) #7
  %13 = icmp eq i64 %12, 0
  br i1 %13, label %16, label %20

14:                                               ; preds = %41
  %15 = icmp slt i32 %44, 0
  br i1 %15, label %68, label %16

16:                                               ; preds = %0, %14
  %17 = phi i32 [ %44, %14 ], [ 0, %0 ]
  %18 = add nuw i32 %17, 1
  %19 = zext i32 %18 to i64
  br label %52

20:                                               ; preds = %0, %41
  %21 = phi i64 [ %46, %41 ], [ 0, %0 ]
  %22 = phi i32 [ %44, %41 ], [ 0, %0 ]
  %23 = phi i32 [ %43, %41 ], [ 0, %0 ]
  %24 = phi i32 [ %45, %41 ], [ 0, %0 ]
  %25 = getelementptr inbounds [100 x i8], [100 x i8]* %1, i64 0, i64 %21
  %26 = load i8, i8* %25, align 1, !tbaa !5
  %27 = icmp eq i8 %26, 32
  br i1 %27, label %28, label %36

28:                                               ; preds = %20
  %29 = add nsw i32 %22, 1
  %30 = add nsw i32 %24, 1
  %31 = sext i32 %30 to i64
  %32 = getelementptr inbounds [100 x i8], [100 x i8]* %1, i64 0, i64 %31
  %33 = load i8, i8* %32, align 1, !tbaa !5
  %34 = sext i32 %29 to i64
  %35 = getelementptr inbounds [100 x [100 x i8]], [100 x [100 x i8]]* %4, i64 0, i64 %34, i64 0
  store i8 %33, i8* %35, align 4, !tbaa !5
  br label %41

36:                                               ; preds = %20
  %37 = sext i32 %22 to i64
  %38 = sext i32 %23 to i64
  %39 = getelementptr inbounds [100 x [100 x i8]], [100 x [100 x i8]]* %4, i64 0, i64 %37, i64 %38
  store i8 %26, i8* %39, align 1, !tbaa !5
  %40 = add nsw i32 %23, 1
  br label %41

41:                                               ; preds = %28, %36
  %42 = phi i32 [ %30, %28 ], [ %24, %36 ]
  %43 = phi i32 [ 1, %28 ], [ %40, %36 ]
  %44 = phi i32 [ %29, %28 ], [ %22, %36 ]
  %45 = add nsw i32 %42, 1
  %46 = sext i32 %45 to i64
  %47 = icmp ugt i64 %12, %46
  br i1 %47, label %20, label %14, !llvm.loop !8

48:                                               ; preds = %59
  %49 = icmp sgt i32 %17, 0
  br i1 %49, label %50, label %68

50:                                               ; preds = %48
  %51 = zext i32 %17 to i64
  br label %62

52:                                               ; preds = %16, %59
  %53 = phi i64 [ 0, %16 ], [ %60, %59 ]
  %54 = getelementptr inbounds [100 x [100 x i8]], [100 x [100 x i8]]* %4, i64 0, i64 %53, i64 0
  %55 = call i32 @strcmp(i8* noundef nonnull %54, i8* noundef nonnull %6) #7
  %56 = icmp eq i32 %55, 0
  br i1 %56, label %57, label %59

57:                                               ; preds = %52
  %58 = call i8* @strcpy(i8* noundef nonnull %54, i8* noundef nonnull %7) #6
  br label %59

59:                                               ; preds = %52, %57
  %60 = add nuw nsw i64 %53, 1
  %61 = icmp eq i64 %60, %19
  br i1 %61, label %48, label %52, !llvm.loop !10

62:                                               ; preds = %50, %62
  %63 = phi i64 [ 0, %50 ], [ %66, %62 ]
  %64 = getelementptr inbounds [100 x [100 x i8]], [100 x [100 x i8]]* %4, i64 0, i64 %63, i64 0
  %65 = call i32 (i8*, ...) @printf(i8* nonnull dereferenceable(1) getelementptr inbounds ([4 x i8], [4 x i8]* @.str, i64 0, i64 0), i8* nonnull %64)
  %66 = add nuw nsw i64 %63, 1
  %67 = icmp eq i64 %66, %51
  br i1 %67, label %68, label %62, !llvm.loop !11

68:                                               ; preds = %62, %14, %48
  %69 = phi i32 [ %17, %48 ], [ %44, %14 ], [ %17, %62 ]
  %70 = sext i32 %69 to i64
  %71 = getelementptr inbounds [100 x [100 x i8]], [100 x [100 x i8]]* %4, i64 0, i64 %70, i64 0
  %72 = call i32 (i8*, ...) @printf(i8* nonnull dereferenceable(1) getelementptr inbounds ([3 x i8], [3 x i8]* @.str.1, i64 0, i64 0), i8* nonnull %71)
  call void @llvm.lifetime.end.p0i8(i64 10000, i8* nonnull %8) #6
  call void @llvm.lifetime.end.p0i8(i64 100, i8* nonnull %7) #6
  call void @llvm.lifetime.end.p0i8(i64 100, i8* nonnull %6) #6
  call void @llvm.lifetime.end.p0i8(i64 100, i8* nonnull %5) #6
  ret i32 0
}

; Function Attrs: argmemonly mustprogress nofree nosync nounwind willreturn
declare void @llvm.lifetime.start.p0i8(i64 immarg, i8* nocapture) #1

declare i32 @gets(...) local_unnamed_addr #2

; Function Attrs: argmemonly mustprogress nofree nounwind readonly willreturn
declare i64 @strlen(i8* nocapture) local_unnamed_addr #3

; Function Attrs: argmemonly mustprogress nofree nounwind readonly willreturn
declare i32 @strcmp(i8* nocapture, i8* nocapture) local_unnamed_addr #3

; Function Attrs: argmemonly mustprogress nofree nounwind willreturn
declare i8* @strcpy(i8* noalias returned writeonly, i8* noalias nocapture readonly) local_unnamed_addr #4

; Function Attrs: nofree nounwind
declare noundef i32 @printf(i8* nocapture noundef readonly, ...) local_unnamed_addr #5

; Function Attrs: argmemonly mustprogress nofree nosync nounwind willreturn
declare void @llvm.lifetime.end.p0i8(i64 immarg, i8* nocapture) #1


!llvm.module.flags = !{!0, !1, !2, !3}
!llvm.ident = !{!4}

!0 = !{i32 1, !"wchar_size", i32 4}
!1 = !{i32 7, !"PIC Level", i32 2}
!2 = !{i32 7, !"PIE Level", i32 2}
!3 = !{i32 7, !"uwtable", i32 1}
!4 = !{!"clang version 13.0.0"}
!5 = !{!6, !6, i64 0}
!6 = !{!"omnipotent char", !7, i64 0}
!7 = !{!"Simple C/C++ TBAA"}
!8 = distinct !{!8, !9}
!9 = !{!"llvm.loop.mustprogress"}
!10 = distinct !{!10, !9}
!11 = distinct !{!11, !9}
